Microchip MPLAB XC8 Compiler V2.46

Linker command line:

-W-3 \
  --edf=C:\Program Files\Microchip\xc8\v2.46\pic\dat\20240104201356_en.msgs \
  -cn -h+dist/default/debug\test5.X.debug.sym \
  --cmf=dist/default/debug\test5.X.debug.cmf -z -Q18F26K20 \
  -oC:\Users\martin\AppData\Local\Temp\xcAshbc.\driver_tmp_3.o \
  --defsym=__MPLAB_BUILD=1 --fixupoverflow=error \
  -Mdist/default/debug/test5.X.debug.map \
  --md=C:\Users\martin\AppData\Local\Temp\xcAshbc.\driver_tmp_0.dat -E1 \
  -ver=XC8 Compiler --acfsm=1493 -ACODE=00h-0FD2Fh -ACONST=00h-0FD2Fh \
  -ASMALLCONST=01000h-010FFhx237,0FD00h-0FD2Fh -AMEDIUMCONST=01000h-0FD2Fh \
  -ACOMRAM=01h-05Fh -AABS1=00h-0EF3h,0F00h-0F5Fh \
  -ABIGRAM=01h-0EF3h,0F00h-0F5Fh \
  -ARAM=060h-0FFh,0100h-01FFhx13,0E00h-0EF3h,0F00h-0F5Fh -ABANK0=060h-0FFh \
  -ABANK1=0100h-01FFh -ABANK2=0200h-02FFh -ABANK3=0300h-03FFh \
  -ABANK4=0400h-04FFh -ABANK5=0500h-05FFh -ABANK6=0600h-06FFh \
  -ABANK7=0700h-07FFh -ABANK8=0800h-08FFh -ABANK9=0900h-09FFh \
  -ABANK10=0A00h-0AFFh -ABANK11=0B00h-0BFFh -ABANK12=0C00h-0CFFh \
  -ABANK13=0D00h-0DFFh -ABANK14=0E00h-0EF3h -ABANK15=0F00h-0F5Fh \
  -ASFR=0F60h-0F9Bh,0F9Dh-0FD3h,0FD5h-0FDAh,0FE0h-0FE2h,0FE8h-0FEAh,0FF0h-0FFCh \
  -ABIGSFR=0F60h-0F9Bh,0F9Dh-0FD3h,0FD5h-0FDAh,0FE0h-0FE2h,0FE8h-0FEAh,0FF0h-0FFCh \
  -ACONFIG=0300000h-030000Dh -AIDLOC=0200000h-0200007h \
  -AEEDATA=0F00000h-0F003FFh -peeprom_data=EEDATA \
  -preset_vec=00h,intcode,sivt_hi,intcodelo,sivt_lo,powerup,init \
  -pramtop=01000h -psmallconst=SMALLCONST -pmediumconst=MEDIUMCONST \
  -pconst=CONST -AFARRAM=00h-00h \
  -prdata=COMRAM,nvrram=COMRAM,nvbit=COMRAM,rbss=COMRAM,rbit=COMRAM \
  -pfarbss=FARRAM,fardata=FARRAM,nvFARRAM=FARRAM \
  -pintsave_regs=BIGRAM,bigbss=BIGRAM,bigdata=BIGRAM -pbss=RAM \
  -pidata=CODE,irdata=CODE,ibigdata=CODE,ifardata=CODE -prparam=COMRAM \
  C:\Users\martin\AppData\Local\Temp\xcAshbc.\driver_tmp_9.o \
  dist/default/debug\test5.X.debug.o 

Object code version is 3.11

Machine type is 18F26K20



                Name                               Link     Load   Length Selector   Space Scale
C:\Users\martin\AppData\Local\Temp\xcAshbc.\driver_tmp_9.o
                idloc                            200000   200000        8        0       5
                config                           300000   300000        E        0       4
                init                                  0        0        4        0       0
dist/default/debug\test5.X.debug.o
                idloc                            200000   200000        8        0       5
                config                           300000   300000        E        0       4
                mediumconst                        F52E     F52E      802     7A97       0
                text29                             EA70     EA70       16     7538       0
                text28                             EA06     EA06        A     7503       0
                text27                             EAD6     EAD6       22     756B       0
                text26                             EA1C     EA1C        E     750E       0
                text25                             EA2A     EA2A        E     7515       0
                text24                             EB1E     EB1E       28     758F       0
                text23                             EA38     EA38       12     751C       0
                text22                             EAB8     EAB8       1E     755C       0
                text21                             EA5C     EA5C       14     752E       0
                text20                             EA10     EA10        C     7508       0
                text19                             EA02     EA02        4     7501       0
                text18                             EA9E     EA9E       1A     754F       0
                text17                             EFE6     EFE6       C4     77F3       0
                text16                             EF26     EF26       C0     7793       0
                text15                             F194     F194      12E     78CA       0
                text14                             EBDE     EBDE       38     75EF       0
                text13                             EE76     EE76       B0     773B       0
                text12                             F3F2     F3F2      13C     79F9       0
                text11                             EDCC     EDCC       AA     76E6       0
                text10                             EC68     EC68       5A     7634       0
                text9                              EA4A     EA4A       12     7525       0
                text8                              EB76     EB76       34     75BB       0
                text7                              F0AA     F0AA       EA     7855       0
                text6                              ECC2     ECC2       80     7661       0
                text5                              EAF8     EAF8       26     757C       0
                text4                              F2C2     F2C2      130     7961       0
                text3                              EB46     EB46       30     75A3       0
                text2                              EC16     EC16       52     760B       0
                text1                              EBAA     EBAA       34     75D5       0
                text0                              ED42     ED42       8A     76A1       0
                cstackCOMRAM                          1        1       5E        1       1
                cstackBANK0                          AE       AE        2       60       1
                bssBANK0                             60       60       4E       60       1
                bssCOMRAM                            5F       5F        1        1       1
                cinit                              EA86     EA86       18     7543       0

TOTAL           Name                               Link     Load   Length     Space
        CLASS   CODE           
                init                                  0        0        4         0
                text29                             EA70     EA70       16         0
                text28                             EA06     EA06        A         0
                text27                             EAD6     EAD6       22         0
                text26                             EA1C     EA1C        E         0
                text25                             EA2A     EA2A        E         0
                text24                             EB1E     EB1E       28         0
                text23                             EA38     EA38       12         0
                text22                             EAB8     EAB8       1E         0
                text21                             EA5C     EA5C       14         0
                text20                             EA10     EA10        C         0
                text19                             EA02     EA02        4         0
                text18                             EA9E     EA9E       1A         0
                text17                             EFE6     EFE6       C4         0
                text16                             EF26     EF26       C0         0
                text15                             F194     F194      12E         0
                text14                             EBDE     EBDE       38         0
                text13                             EE76     EE76       B0         0
                text12                             F3F2     F3F2      13C         0
                text11                             EDCC     EDCC       AA         0
                text10                             EC68     EC68       5A         0
                text9                              EA4A     EA4A       12         0
                text8                              EB76     EB76       34         0
                text7                              F0AA     F0AA       EA         0
                text6                              ECC2     ECC2       80         0
                text5                              EAF8     EAF8       26         0
                text4                              F2C2     F2C2      130         0
                text3                              EB46     EB46       30         0
                text2                              EC16     EC16       52         0
                text1                              EBAA     EBAA       34         0
                text0                              ED42     ED42       8A         0
                cinit                              EA86     EA86       18         0

        CLASS   CONST          

        CLASS   SMALLCONST     

        CLASS   MEDIUMCONST    
                mediumconst                        F52E     F52E      802         0

        CLASS   COMRAM         
                cstackCOMRAM                          1        1       5E         1
                bssCOMRAM                            5F       5F        1         1

        CLASS   ABS1           

        CLASS   BIGRAM         

        CLASS   RAM            

        CLASS   BANK0          
                cstackBANK0                          AE       AE        2         1
                bssBANK0                             60       60       4E         1

        CLASS   BANK1          

        CLASS   BANK2          

        CLASS   BANK3          

        CLASS   BANK4          

        CLASS   BANK5          

        CLASS   BANK6          

        CLASS   BANK7          

        CLASS   BANK8          

        CLASS   BANK9          

        CLASS   BANK10         

        CLASS   BANK11         

        CLASS   BANK12         

        CLASS   BANK13         

        CLASS   BANK14         

        CLASS   BANK15         

        CLASS   SFR            

        CLASS   BIGSFR         

        CLASS   CONFIG         
                config                           300000   300000        E         4

        CLASS   IDLOC          
                idloc                            200000   200000        8         5

        CLASS   EEDATA         

        CLASS   FARRAM         

        CLASS   HEAP           

        CLASS   STACK          



SEGMENTS        Name                           Load    Length   Top    Selector   Space  Class

                reset_vec                      000000  000004  000004         0       0  CODE    
                cstackCOMRAM                   000001  00005F  000060         1       1  COMRAM  
                bssBANK0                       000060  000050  0000B0        60       1  BANK0   
                text19                         00EA02  000004  00EA06      7501       0  CODE    
                text28                         00EA06  00000A  00EA10      7503       0  CODE    
                text20                         00EA10  00000C  00EA1C      7508       0  CODE    
                text26                         00EA1C  00000E  00EA2A      750E       0  CODE    
                text25                         00EA2A  00000E  00EA38      7515       0  CODE    
                text23                         00EA38  000012  00EA4A      751C       0  CODE    
                text9                          00EA4A  000012  00EA5C      7525       0  CODE    
                text21                         00EA5C  000014  00EA70      752E       0  CODE    
                text29                         00EA70  000016  00EA86      7538       0  CODE    
                cinit                          00EA86  000018  00EA9E      7543       0  CODE    
                text18                         00EA9E  00001A  00EAB8      754F       0  CODE    
                text22                         00EAB8  00001E  00EAD6      755C       0  CODE    
                text27                         00EAD6  000022  00EAF8      756B       0  CODE    
                text5                          00EAF8  000026  00EB1E      757C       0  CODE    
                text24                         00EB1E  000028  00EB46      758F       0  CODE    
                text3                          00EB46  000030  00EB76      75A3       0  CODE    
                text8                          00EB76  000034  00EBAA      75BB       0  CODE    
                text1                          00EBAA  000034  00EBDE      75D5       0  CODE    
                text14                         00EBDE  000038  00EC16      75EF       0  CODE    
                text2                          00EC16  000052  00EC68      760B       0  CODE    
                text10                         00EC68  00005A  00ECC2      7634       0  CODE    
                text6                          00ECC2  000080  00ED42      7661       0  CODE    
                text0                          00ED42  00008A  00EDCC      76A1       0  CODE    
                text11                         00EDCC  0000AA  00EE76      76E6       0  CODE    
                text13                         00EE76  0000B0  00EF26      773B       0  CODE    
                text16                         00EF26  0000C0  00EFE6      7793       0  CODE    
                text17                         00EFE6  0000C4  00F0AA      77F3       0  CODE    
                text7                          00F0AA  0000EA  00F194      7855       0  CODE    
                text15                         00F194  00012E  00F2C2      78CA       0  CODE    
                text4                          00F2C2  000130  00F3F2      7961       0  CODE    
                text12                         00F3F2  00013C  00F52E      79F9       0  CODE    
                mediumconst                    00F52E  000802  00FD30      7A97       0  MEDIUMCO


UNUSED ADDRESS RANGES

        Name                Unused          Largest block    Delta
        BANK0            0000B0-0000FF               50
        BANK1            000100-0001FF              100
        BANK10           000A00-000AFF              100
        BANK11           000B00-000BFF              100
        BANK12           000C00-000CFF              100
        BANK13           000D00-000DFF              100
        BANK14           000E00-000EF3               F4
        BANK15           000F00-000F5F               60
        BANK2            000200-0002FF              100
        BANK3            000300-0003FF              100
        BANK4            000400-0004FF              100
        BANK5            000500-0005FF              100
        BANK6            000600-0006FF              100
        BANK7            000700-0007FF              100
        BANK8            000800-0008FF              100
        BANK9            000900-0009FF              100
        BIGRAM           0000B0-000EF3              E44
                         000F00-000F5F               60
        BIGSFR           000F60-000F9B               3C
                         000F9D-000FD3               37
                         000FD5-000FDA                6
                         000FE0-000FE2                3
                         000FE8-000FEA                3
                         000FF0-000FFC                D
        CODE             000004-00EA01             E9FE
        CONST            000004-00EA01             E9FE
        EEDATA           F00000-F003FF              400
        MEDIUMCONST      001000-00EA01             DA02
        RAM              0000B0-000EF3              100
                         000F00-000F5F               60
        SFR              000F60-000F9B               3C
                         000F9D-000FD3               37
                         000FD5-000FDA                6
                         000FE0-000FE2                3
                         000FE8-000FEA                3
                         000FF0-000FFC                D
        SMALLCONST       001000-00EA01              100

                                  Symbol Table

?___awdiv                            cstackCOMRAM 000001
?___awmod                            cstackCOMRAM 000001
FLASH_EraseBlock@GIEBitValue         cstackCOMRAM 000005
FLASH_EraseBlock@baseAddr            cstackCOMRAM 000001
FLASH_ReadByte@flashAddr             cstackCOMRAM 000001
FLASH_WriteBlock@GIEBitValue         cstackCOMRAM 00000F
FLASH_WriteBlock@blockStartAddr      cstackCOMRAM 00000B
FLASH_WriteBlock@dataCounter         cstackCOMRAM 000012
FLASH_WriteBlock@flashWrBufPtr       cstackCOMRAM 00000A
FLASH_WriteBlock@i                   cstackCOMRAM 000013
FLASH_WriteBlock@j                   cstackCOMRAM 000010
FLASH_WriteBlock@numberOfWriteBlocks cstackCOMRAM 000011
FLASH_WriteBlock@writeAddr           cstackCOMRAM 000006
FLASH_WriteByte@blockStartAddr       cstackCOMRAM 00001B
FLASH_WriteByte@byte                 cstackCOMRAM 000019
FLASH_WriteByte@flashAddr            cstackCOMRAM 000014
FLASH_WriteByte@flashRdBufPtr        cstackCOMRAM 000018
FLASH_WriteByte@i                    cstackCOMRAM 00001F
FLASH_WriteByte@offset               cstackCOMRAM 00001A
SPI_Exchange8bit@data                cstackCOMRAM 000001
_ANSEL                               (abs)        000F7E
_ANSELH                              (abs)        000F7F
_BAUDCON                             (abs)        000FB8
_CCP2CON                             (abs)        000FBA
_CCPR2H                              (abs)        000FBC
_CCPR2L                              (abs)        000FBB
_EEADR                               (abs)        000FA9
_EEADRH                              (abs)        000FAA
_EECON1bits                          (abs)        000FA6
_EECON2                              (abs)        000FA7
_EEDATA                              (abs)        000FA8
_EUSART_Initialize                   text29       00EA70
_FLASH_EraseBlock                    text8        00EB76
_FLASH_ReadByte                      text9        00EA4A
_FLASH_WriteBlock                    text7        00F0AA
_FLASH_WriteByte                     text6        00ECC2
_INTCON2bits                         (abs)        000FF1
_INTCONbits                          (abs)        000FF2
_LATA                                (abs)        000F89
_LATB                                (abs)        000F8A
_LATC                                (abs)        000F8B
_LATCbits                            (abs)        000F8B
_MAX7219_Dot_Matrix_font             mediumconst  00F52F
_OSCCON                              (abs)        000FD3
_OSCILLATOR_Initialize               text28       00EA06
_OSCTUNE                             (abs)        000F9B
_PIN_MANAGER_Initialize              text27       00EAD6
_PIR1bits                            (abs)        000F9E
_PIR2bits                            (abs)        000FA1
_PORTBbits                           (abs)        000F81
_PR2                                 (abs)        000FCB
_PWM2_Initialize                     text26       00EA1C
_RCREG                               (abs)        000FAE
_RCSTA                               (abs)        000FAB
_RCSTAbits                           (abs)        000FAB
_SPBRG                               (abs)        000FAF
_SPBRGH                              (abs)        000FB0
_SPI_Exchange8bit                    text18       00EA9E
_SPI_Initialize                      text25       00EA2A
_SSPADD                              (abs)        000FC8
_SSPBUF                              (abs)        000FC9
_SSPCON1                             (abs)        000FC6
_SSPCON1bits                         (abs)        000FC6
_SSPSTAT                             (abs)        000FC7
_SSPSTATbits                         (abs)        000FC7
_SYSTEM_Initialize                   text22       00EAB8
_T0CON                               (abs)        000FD5
_T0CONbits                           (abs)        000FD5
_T2CON                               (abs)        000FCA
_T2CONbits                           (abs)        000FCA
_TABLAT                              (abs)        000FF5
_TBLPTRH                             (abs)        000FF7
_TBLPTRL                             (abs)        000FF6
_TBLPTRU                             (abs)        000FF8
_TMR0H                               (abs)        000FD7
_TMR0L                               (abs)        000FD6
_TMR0_HasOverflowOccured             text21       00EA5C
_TMR0_Initialize                     text24       00EB1E
_TMR0_Reload                         text20       00EA10
_TMR0_StartTimer                     text19       00EA02
_TMR2                                (abs)        000FCC
_TMR2_Initialize                     text23       00EA38
_TRISA                               (abs)        000F92
_TRISB                               (abs)        000F93
_TRISC                               (abs)        000F94
_TXREG                               (abs)        000FAD
_TXSTA                               (abs)        000FAC
_TXSTAbits                           (abs)        000FAC
_WPUB                                (abs)        000F7C
__HRAM                               (abs)        000000
__H__absolute__                      __absolute__ 000000
__Habs1                              abs1         000000
__Hbank0                             bank0        000000
__Hbank1                             bank1        000000
__Hbank10                            bank10       000000
__Hbank11                            bank11       000000
__Hbank12                            bank12       000000
__Hbank13                            bank13       000000
__Hbank14                            bank14       000000
__Hbank15                            bank15       000000
__Hbank2                             bank2        000000
__Hbank3                             bank3        000000
__Hbank4                             bank4        000000
__Hbank5                             bank5        000000
__Hbank6                             bank6        000000
__Hbank7                             bank7        000000
__Hbank8                             bank8        000000
__Hbank9                             bank9        000000
__Hbigbss                            bigbss       000000
__Hbigdata                           bigdata      000000
__Hbigram                            bigram       000000
__Hbigsfr                            bigsfr       000000
__Hbss                               bss          000000
__HbssBANK0                          bssBANK0     000000
__HbssCOMRAM                         bssCOMRAM    000000
__Hcinit                             cinit        000000
__Hclrtext                           clrtext      000000
__Hcomram                            comram       000000
__Hconfig                            config       30000E
__Hconst                             const        000000
__HcstackBANK0                       cstackBANK0  000000
__HcstackCOMRAM                      cstackCOMRAM 000000
__Hdata                              data         000000
__Heeprom_data                       eeprom_data  000000
__Hfarbss                            farbss       000000
__Hfardata                           fardata      000000
__Hheap                              heap         000000
__Hibigdata                          ibigdata     000000
__Hidata                             idata        000000
__Hidloc                             idloc        200008
__Hifardata                          ifardata     000000
__Hinit                              init         000004
__Hintcode                           intcode      000000
__Hintcode_body                      intcode_body 000000
__Hintcodelo                         intcodelo    000000
__Hintentry                          intentry     000000
__Hintret                            intret       000000
__Hintsave_regs                      intsave_regs 000000
__Hirdata                            irdata       000000
__Hmediumconst                       mediumconst  00FD30
__HnvFARRAM                          nvFARRAM     000000
__Hnvbit                             nvbit        000000
__Hnvrram                            nvrram       000000
__Hparam                             rparam       000000
__Hpowerup                           powerup      000000
__Hram                               ram          000000
__Hramtop                            ramtop       001000
__Hrbit                              rbit         000000
__Hrbss                              rbss         000000
__Hrdata                             rdata        000000
__Hreset_vec                         reset_vec    000000
__Hrparam                            rparam       000000
__Hsfr                               sfr          000000
__Hsivt_hi                           sivt_hi      000000
__Hsivt_lo                           sivt_lo      000000
__Hsmallconst                        smallconst   000000
__Hspace_0                           (abs)        00FD30
__Hspace_1                           (abs)        0000B0
__Hspace_2                           (abs)        000000
__Hspace_4                           (abs)        60000E
__Hstack                             stack        000000
__Hstruct                            struct       000000
__Htemp                              temp         000000
__Htext                              text         000000
__Htext0                             text0        000000
__Htext1                             text1        000000
__Htext10                            text10       000000
__Htext11                            text11       000000
__Htext12                            text12       000000
__Htext13                            text13       000000
__Htext14                            text14       000000
__Htext15                            text15       000000
__Htext16                            text16       000000
__Htext17                            text17       000000
__Htext18                            text18       000000
__Htext19                            text19       000000
__Htext2                             text2        000000
__Htext20                            text20       000000
__Htext21                            text21       000000
__Htext22                            text22       000000
__Htext23                            text23       000000
__Htext24                            text24       000000
__Htext25                            text25       000000
__Htext26                            text26       000000
__Htext27                            text27       000000
__Htext28                            text28       000000
__Htext29                            text29       000000
__Htext3                             text3        000000
__Htext4                             text4        000000
__Htext5                             text5        000000
__Htext6                             text6        000000
__Htext7                             text7        000000
__Htext8                             text8        000000
__Htext9                             text9        000000
__LRAM                               (abs)        000001
__L__absolute__                      __absolute__ 000000
__Labs1                              abs1         000000
__Lbank0                             bank0        000000
__Lbank1                             bank1        000000
__Lbank10                            bank10       000000
__Lbank11                            bank11       000000
__Lbank12                            bank12       000000
__Lbank13                            bank13       000000
__Lbank14                            bank14       000000
__Lbank15                            bank15       000000
__Lbank2                             bank2        000000
__Lbank3                             bank3        000000
__Lbank4                             bank4        000000
__Lbank5                             bank5        000000
__Lbank6                             bank6        000000
__Lbank7                             bank7        000000
__Lbank8                             bank8        000000
__Lbank9                             bank9        000000
__Lbigbss                            bigbss       000000
__Lbigdata                           bigdata      000000
__Lbigram                            bigram       000000
__Lbigsfr                            bigsfr       000000
__Lbss                               bss          000000
__LbssBANK0                          bssBANK0     000000
__LbssCOMRAM                         bssCOMRAM    000000
__Lcinit                             cinit        000000
__Lclrtext                           clrtext      000000
__Lcomram                            comram       000000
__Lconfig                            config       000000
__Lconst                             const        000000
__LcstackBANK0                       cstackBANK0  000000
__LcstackCOMRAM                      cstackCOMRAM 000000
__Ldata                              data         000000
__Leeprom_data                       eeprom_data  000000
__Lfarbss                            farbss       000000
__Lfardata                           fardata      000000
__Lheap                              heap         000000
__Libigdata                          ibigdata     000000
__Lidata                             idata        000000
__Lidloc                             idloc        000000
__Lifardata                          ifardata     000000
__Linit                              init         000000
__Lintcode                           intcode      000000
__Lintcode_body                      intcode_body 000000
__Lintcodelo                         intcodelo    000000
__Lintentry                          intentry     000000
__Lintret                            intret       000000
__Lintsave_regs                      intsave_regs 000000
__Lirdata                            irdata       000000
__Lmediumconst                       mediumconst  00F52E
__LnvFARRAM                          nvFARRAM     000000
__Lnvbit                             nvbit        000000
__Lnvrram                            nvrram       000000
__Lparam                             rparam       000000
__Lpowerup                           powerup      000000
__Lram                               ram          000000
__Lramtop                            ramtop       001000
__Lrbit                              rbit         000000
__Lrbss                              rbss         000000
__Lrdata                             rdata        000000
__Lreset_vec                         reset_vec    000000
__Lrparam                            rparam       000000
__Lsfr                               sfr          000000
__Lsivt_hi                           sivt_hi      000000
__Lsivt_lo                           sivt_lo      000000
__Lsmallconst                        smallconst   000000
__Lspace_0                           (abs)        000000
__Lspace_1                           (abs)        000000
__Lspace_2                           (abs)        000000
__Lspace_4                           (abs)        000000
__Lstack                             stack        000000
__Lstruct                            struct       000000
__Ltemp                              temp         000000
__Ltext                              text         000000
__Ltext0                             text0        000000
__Ltext1                             text1        000000
__Ltext10                            text10       000000
__Ltext11                            text11       000000
__Ltext12                            text12       000000
__Ltext13                            text13       000000
__Ltext14                            text14       000000
__Ltext15                            text15       000000
__Ltext16                            text16       000000
__Ltext17                            text17       000000
__Ltext18                            text18       000000
__Ltext19                            text19       000000
__Ltext2                             text2        000000
__Ltext20                            text20       000000
__Ltext21                            text21       000000
__Ltext22                            text22       000000
__Ltext23                            text23       000000
__Ltext24                            text24       000000
__Ltext25                            text25       000000
__Ltext26                            text26       000000
__Ltext27                            text27       000000
__Ltext28                            text28       000000
__Ltext29                            text29       000000
__Ltext3                             text3        000000
__Ltext4                             text4        000000
__Ltext5                             text5        000000
__Ltext6                             text6        000000
__Ltext7                             text7        000000
__Ltext8                             text8        000000
__Ltext9                             text9        000000
__S0                                 (abs)        00FD30
__S1                                 (abs)        0000B0
__S4                                 (abs)        000000
__S5                                 (abs)        000000
___awdiv                             text17       00EFE6
___awdiv@counter                     cstackCOMRAM 000005
___awdiv@dividend                    cstackCOMRAM 000001
___awdiv@divisor                     cstackCOMRAM 000003
___awdiv@quotient                    cstackCOMRAM 000007
___awdiv@sign                        cstackCOMRAM 000006
___awmod                             text13       00EE76
___awmod@counter                     cstackCOMRAM 000005
___awmod@dividend                    cstackCOMRAM 000001
___awmod@divisor                     cstackCOMRAM 000003
___awmod@sign                        cstackCOMRAM 000006
___heap_hi                           (abs)        000000
___heap_lo                           (abs)        000000
___inthi_sp                          stack        000000
___inthi_stack_hi                    stack        000000
___inthi_stack_lo                    stack        000000
___intlo_sp                          stack        000000
___intlo_stack_hi                    stack        000000
___intlo_stack_lo                    stack        000000
___param_bank                        (abs)        000000
___rparam_used                       (abs)        000001
___sp                                stack        000000
___stack_hi                          stack        000000
___stack_lo                          stack        000000
__accesstop                          (abs)        000060
__activetblptr                       (abs)        000002
__end_of_EUSART_Initialize           text29       00EA86
__end_of_FLASH_EraseBlock            text8        00EBAA
__end_of_FLASH_ReadByte              text9        00EA5C
__end_of_FLASH_WriteBlock            text7        00F194
__end_of_FLASH_WriteByte             text6        00ED42
__end_of_MAX7219_Dot_Matrix_font     mediumconst  00FD2F
__end_of_OSCILLATOR_Initialize       text28       00EA10
__end_of_PIN_MANAGER_Initialize      text27       00EAF8
__end_of_PWM2_Initialize             text26       00EA2A
__end_of_SPI_Exchange8bit            text18       00EAB8
__end_of_SPI_Initialize              text25       00EA38
__end_of_SYSTEM_Initialize           text22       00EAD6
__end_of_TMR0_HasOverflowOccured     text21       00EA70
__end_of_TMR0_Initialize             text24       00EB46
__end_of_TMR0_Reload                 text20       00EA1C
__end_of_TMR0_StartTimer             text19       00EA06
__end_of_TMR2_Initialize             text23       00EA4A
__end_of___awdiv                     text17       00F0AA
__end_of___awmod                     text13       00EF26
__end_of__initialization             cinit        00EA94
__end_of_blinkDisplay                text10       00ECC2
__end_of_checkButtons                text4        00F3F2
__end_of_clearDisplay                text14       00EC16
__end_of_displayTime                 text11       00EE76
__end_of_flushBuffer                 text15       00F2C2
__end_of_loadTimeFromFlash           text3        00EB76
__end_of_main                        text0        00EDCC
__end_of_matrixInit                  text1        00EBDE
__end_of_max7219_cmd                 text2        00EC68
__end_of_max_write                   text16       00EFE6
__end_of_printString                 text12       00F52E
__end_of_saveTimeToFlash             text5        00EB1E
__initialization                     cinit        00EA86
__mediumconst                        mediumconst  00F52E
__pbssBANK0                          bssBANK0     000060
__pbssCOMRAM                         bssCOMRAM    00005F
__pcinit                             cinit        00EA86
__pcstackBANK0                       cstackBANK0  0000AE
__pcstackCOMRAM                      cstackCOMRAM 000001
__pmediumconst                       mediumconst  00F52E
__ptext0                             text0        00ED42
__ptext1                             text1        00EBAA
__ptext10                            text10       00EC68
__ptext11                            text11       00EDCC
__ptext12                            text12       00F3F2
__ptext13                            text13       00EE76
__ptext14                            text14       00EBDE
__ptext15                            text15       00F194
__ptext16                            text16       00EF26
__ptext17                            text17       00EFE6
__ptext18                            text18       00EA9E
__ptext19                            text19       00EA02
__ptext2                             text2        00EC16
__ptext20                            text20       00EA10
__ptext21                            text21       00EA5C
__ptext22                            text22       00EAB8
__ptext23                            text23       00EA38
__ptext24                            text24       00EB1E
__ptext25                            text25       00EA2A
__ptext26                            text26       00EA1C
__ptext27                            text27       00EAD6
__ptext28                            text28       00EA06
__ptext29                            text29       00EA70
__ptext3                             text3        00EB46
__ptext4                             text4        00F2C2
__ptext5                             text5        00EAF8
__ptext6                             text6        00ECC2
__ptext7                             text7        00F0AA
__ptext8                             text8        00EB76
__ptext9                             text9        00EA4A
__ramtop                             ramtop       001000
__smallconst                         smallconst   000000
_alarmActive                         bssBANK0     0000A8
_alarmHours                          bssBANK0     0000AB
_alarmMinutes                        bssBANK0     0000AA
_alarmSet                            bssBANK0     0000A9
_blinkDisplay                        text10       00EC68
_blinkTimer                          bssBANK0     0000A4
_bufferCol                           bssBANK0     000080
_button3PressTime                    bssBANK0     0000A2
_checkButtons                        text4        00F2C2
_clearDisplay                        text14       00EBDE
_displayBlinking                     bssBANK0     0000A7
_displayTime                         text11       00EDCC
_flushBuffer                         text15       00F194
_hours                               bssCOMRAM    00005F
_isButton3Pressed                    bssBANK0     0000A6
_loadTimeFromFlash                   text3        00EB46
_main                                text0        00ED42
_matrixInit                          text1        00EBAA
_max7219_cmd                         text2        00EC16
_max_write                           text16       00EF26
_minutes                             bssBANK0     0000AD
_printString                         text12       00F3F2
_saveTimeToFlash                     text5        00EAF8
_seconds                             bssBANK0     0000AC
_timer0ReloadVal                     bssBANK0     0000A0
clearDisplay@i                       cstackCOMRAM 000041
displayTime@displayString            cstackCOMRAM 000053
displayTime@i                        cstackCOMRAM 00005D
displayTime@timeString               cstackCOMRAM 000058
end_of_initialization                cinit        00EA94
flushBuffer@bufferRow                cstackCOMRAM 000019
flushBuffer@dev                      cstackCOMRAM 000039
flushBuffer@i                        cstackCOMRAM 00003F
flushBuffer@j                        cstackCOMRAM 00003B
flushBuffer@row                      cstackCOMRAM 00003D
intlevel0                            text         000000
intlevel1                            text         000000
intlevel2                            text         000000
intlevel3                            text         000000
isa$std                              (abs)        000001
isa$xinst                            (abs)        000000
max7219_cmd@Addr                     cstackCOMRAM 000005
max7219_cmd@data                     cstackCOMRAM 000002
max7219_cmd@i                        cstackCOMRAM 000008
max7219_cmd@writeData                cstackCOMRAM 000006
max_write@data                       cstackCOMRAM 00000B
max_write@dev                        cstackCOMRAM 000012
max_write@devTarget                  cstackCOMRAM 000010
max_write@offset                     cstackCOMRAM 00000E
max_write@row                        cstackCOMRAM 000009
max_write@writeData                  cstackCOMRAM 000014
printString@data                     cstackCOMRAM 00004A
printString@i                        cstackCOMRAM 00004D
printString@indx                     cstackCOMRAM 000048
printString@j                        cstackCOMRAM 000051
printString@k                        cstackCOMRAM 00004F
printString@str                      cstackCOMRAM 000041
printString@strindx                  cstackCOMRAM 00004B
saveTimeToFlash@timeData             cstackCOMRAM 000020
stackhi                              (abs)        000000
stacklo                              (abs)        000000
start                                init         000000
start_initialization                 cinit        00EA86


MODULE INFORMATION

Module		Function		Class		Link	Load	Size
MAX7219.c
		_printString   		CODE           	F3F2	0000	316
		_clearDisplay  		CODE           	EBDE	0000	56
		_flushBuffer   		CODE           	F194	0000	302
		_max_write     		CODE           	EF26	0000	192
		_matrixInit    		CODE           	EBAA	0000	52
		_max7219_cmd   		CODE           	EC16	0000	82

MAX7219.c estimated size: 1000

C:\Program Files\Microchip\xc8\v2.46\pic\sources\c99\common\awdiv.c
		___awdiv       		CODE           	EFE6	0000	196

C:\Program Files\Microchip\xc8\v2.46\pic\sources\c99\common\awdiv.c estimated size: 196

mcc_generated_files/tmr2.c
		_TMR2_Initialize		CODE           	EA38	0000	18

mcc_generated_files/tmr2.c estimated size: 18

mcc_generated_files/pwm2.c
		_PWM2_Initialize		CODE           	EA1C	0000	14

mcc_generated_files/pwm2.c estimated size: 14

mcc_generated_files/tmr0.c
		_TMR0_Reload   		CODE           	EA10	0000	12
		_TMR0_StartTimer		CODE           	EA02	0000	4
		_TMR0_HasOverflowOccured		CODE           	EA5C	0000	20
		_TMR0_Initialize		CODE           	EB1E	0000	40

mcc_generated_files/tmr0.c estimated size: 76

mcc_generated_files/pin_manager.c
		_PIN_MANAGER_Initialize		CODE           	EAD6	0000	34

mcc_generated_files/pin_manager.c estimated size: 34

mcc_generated_files/spi.c
		_SPI_Exchange8bit		CODE           	EA9E	0000	26
		_SPI_Initialize		CODE           	EA2A	0000	14

mcc_generated_files/spi.c estimated size: 40

shared
		__initialization		CODE           	EA86	0000	14
		_MAX7219_Dot_Matrix_font		MEDIUMCONST    	F52F	0000	2048

shared estimated size: 2062

mcc_generated_files/mcc.c
		_OSCILLATOR_Initialize		CODE           	EA06	0000	10
		_SYSTEM_Initialize		CODE           	EAB8	0000	30

mcc_generated_files/mcc.c estimated size: 40

mcc_generated_files/memory.c
		_FLASH_EraseBlock		CODE           	EB76	0000	52
		_FLASH_ReadByte		CODE           	EA4A	0000	18
		_FLASH_WriteBlock		CODE           	F0AA	0000	234
		_FLASH_WriteByte		CODE           	ECC2	0000	128

mcc_generated_files/memory.c estimated size: 432

C:\Program Files\Microchip\xc8\v2.46\pic\sources\c99\common\awmod.c
		___awmod       		CODE           	EE76	0000	176

C:\Program Files\Microchip\xc8\v2.46\pic\sources\c99\common\awmod.c estimated size: 176

mcc_generated_files/eusart.c
		_EUSART_Initialize		CODE           	EA70	0000	22

mcc_generated_files/eusart.c estimated size: 22

main.c
		_displayTime   		CODE           	EDCC	0000	170
		_loadTimeFromFlash		CODE           	EB46	0000	48
		_saveTimeToFlash		CODE           	EAF8	0000	38
		_main          		CODE           	ED42	0000	138
		_blinkDisplay  		CODE           	EC68	0000	90
		_checkButtons  		CODE           	F2C2	0000	304

main.c estimated size: 788

